(lp0
(dp1
S'type_of_service'
p2
I1
sS'ttl'
p3
I128
sS'len'
p4
I45
sS'ihl'
p5
L5L
sS'offset'
p6
L0L
sS'data'
p7
NsS'id'
p8
I2
sS'checksum'
p9
I14
sS'src_ip'
p10
V192.168.1.37
p11
sS'version'
p12
I4
sS'flags'
p13
I1
sS'dst_ip'
p14
V1.2.3.4
p15
sa(dp16
S'ack_num'
p17
I14
sS'reserved_bits'
p18
Nsg13
I2
sS'seq'
p19
I12
sS'urgent'
p20
NsS'dport'
p21
I135
sg9
NsS'sport'
p22
I4000
sg7
NsS'win_size'
p23
I4096
sa.