(dp0
S'type_of_service'
p1
I2
sS'ttl'
p2
I67
sS'len'
p3
I45
sS'ihl'
p4
L5L
sS'offset'
p5
L0L
sS'data'
p6
NsS'id'
p7
I3
sS'checksum'
p8
I78
sS'src_ip'
p9
V10.0.177.204
p10
sS'version'
p11
I4
sS'flags'
p12
I1
sS'dst_ip'
p13
V1.2.3.4
p14
s.